; Function Attrs: null_pointer_is_valid sspstrong uwtable
define internal void @dissect_osd_flush_osd(ptr noundef %0, ptr noundef %1, ptr noundef %2, i32 noundef %3, i1 noundef zeroext %4, i1 noundef zeroext %5, i32 %6, ptr noundef captures(address_is_null) %7, ptr readnone captures(none) %8, ptr noundef %9) #3 {
  %.not = xor i1 %4, true
  %brmerge.not = and i1 %4, %5
  br i1 %brmerge.not, label %11, label %47

11:                                               ; preds = %10
  %12 = load i32, ptr @hf_scsi_osd_flush_osd_scope, align 4
  %13 = tail call ptr @proto_tree_add_item(ptr noundef %2, i32 noundef %12, ptr noundef %0, i32 noundef %3, i32 noundef 1, i32 noundef 0)
  %14 = add i32 %3, 1
  %.not.i = icmp eq ptr %7, null
  br i1 %.not.i, label %dissect_osd_getsetattrib.exit, label %15

15:                                               ; preds = %11
  %16 = getelementptr inbounds nuw i8, ptr %7, i64 8
  %17 = load ptr, ptr %16, align 8
  %.not11.i = icmp eq ptr %17, null
  br i1 %.not11.i, label %dissect_osd_getsetattrib.exit, label %18

18:                                               ; preds = %15
  %19 = getelementptr inbounds nuw i8, ptr %17, i64 64
  %20 = load ptr, ptr %19, align 8
  %.not12.i = icmp eq ptr %20, null
  br i1 %.not12.i, label %dissect_osd_getsetattrib.exit, label %21

21:                                               ; preds = %18
  %22 = tail call zeroext i8 @tvb_get_uint8(ptr noundef %0, i32 noundef %14)
  %23 = lshr i8 %22, 4
  %24 = and i8 %23, 3
  %25 = getelementptr inbounds nuw i8, ptr %20, i64 2
  store i8 %24, ptr %25, align 2
  br label %dissect_osd_getsetattrib.exit

dissect_osd_getsetattrib.exit:                    ; preds = %11, %15, %18, %21
  %26 = load i32, ptr @hf_scsi_osd_getsetattrib, align 4
  %27 = tail call ptr @proto_tree_add_item(ptr noundef %2, i32 noundef %26, ptr noundef %0, i32 noundef %14, i32 noundef 1, i32 noundef 0)
  %28 = add i32 %3, 2
  %29 = load i32, ptr @hf_scsi_osd_timestamps_control, align 4
  %30 = tail call ptr @proto_tree_add_item(ptr noundef %2, i32 noundef %29, ptr noundef %0, i32 noundef %28, i32 noundef 1, i32 noundef 0)
  %31 = add i32 %3, 42
  tail call fastcc void @dissect_osd_attribute_parameters(ptr noundef %1, ptr noundef %0, i32 noundef %31, ptr noundef %2, ptr noundef %7)
  %32 = add i32 %3, 70
  tail call fastcc void @dissect_osd_capability(ptr noundef %0, i32 noundef %32, ptr noundef %2)
  %33 = add i32 %3, 150
  %34 = load i32, ptr @ett_osd_security_parameters, align 4
  %35 = tail call ptr @proto_tree_add_subtree(ptr noundef %2, ptr noundef %0, i32 noundef %33, i32 noundef 40, i32 noundef %34, ptr noundef null, ptr noundef nonnull @.str.294)
  %36 = load i32, ptr @hf_scsi_osd_ricv, align 4
  %37 = tail call ptr @proto_tree_add_item(ptr noundef %35, i32 noundef %36, ptr noundef %0, i32 noundef %33, i32 noundef 20, i32 noundef 0)
  %38 = add i32 %3, 170
  %39 = load i32, ptr @hf_scsi_osd_request_nonce, align 4
  %40 = tail call ptr @proto_tree_add_item(ptr noundef %35, i32 noundef %39, ptr noundef %0, i32 noundef %38, i32 noundef 12, i32 noundef 0)
  %41 = add i32 %3, 182
  %42 = load i32, ptr @hf_scsi_osd_diicvo, align 4
  %43 = tail call ptr @proto_tree_add_item(ptr noundef %35, i32 noundef %42, ptr noundef %0, i32 noundef %41, i32 noundef 4, i32 noundef 0)
  %44 = add i32 %3, 186
  %45 = load i32, ptr @hf_scsi_osd_doicvo, align 4
  %46 = tail call ptr @proto_tree_add_item(ptr noundef %35, i32 noundef %45, ptr noundef %0, i32 noundef %44, i32 noundef 4, i32 noundef 0)
  br label %47

47:                                               ; preds = %10, %dissect_osd_getsetattrib.exit
  %brmerge47 = or i1 %5, %.not
  br i1 %brmerge47, label %49, label %48

48:                                               ; preds = %47
  tail call fastcc void @dissect_osd_attribute_data_out(ptr noundef %1, ptr noundef %0, ptr noundef %2, ptr noundef %7, ptr noundef %9)
  br label %49

49:                                               ; preds = %47, %48
  %.not.i49 = icmp eq ptr %7, null
  %50 = or i1 %5, %.not.i49
  %or.cond = or i1 %4, %50
  br i1 %or.cond, label %dissect_osd_attribute_data_in.exit, label %51

51:                                               ; preds = %49
  %52 = getelementptr inbounds nuw i8, ptr %7, i64 8
  %53 = load ptr, ptr %52, align 8
  %.not14.i = icmp eq ptr %53, null
  br i1 %.not14.i, label %dissect_osd_attribute_data_in.exit, label %54

54:                                               ; preds = %51
  %55 = getelementptr inbounds nuw i8, ptr %53, i64 64
  %56 = load ptr, ptr %55, align 8
  %.not15.i = icmp eq ptr %56, null
  br i1 %.not15.i, label %dissect_osd_attribute_data_in.exit, label %57

57:                                               ; preds = %54
  %58 = getelementptr inbounds nuw i8, ptr %56, i64 2
  %59 = load i8, ptr %58, align 2
  %cond.i = icmp eq i8 %59, 3
  br i1 %cond.i, label %60, label %dissect_osd_attribute_data_in.exit

60:                                               ; preds = %57
  %61 = getelementptr inbounds nuw i8, ptr %56, i64 12
  %62 = load i32, ptr %61, align 4
  %.not16.i = icmp eq i32 %62, 0
  br i1 %.not16.i, label %dissect_osd_attribute_data_in.exit, label %63

63:                                               ; preds = %60
  %64 = getelementptr inbounds nuw i8, ptr %56, i64 16
  %65 = load i32, ptr %64, align 4
  %66 = getelementptr inbounds nuw i8, ptr %56, i64 32
  %67 = load i8, ptr %66, align 4, !range !9, !noundef !10
  %68 = trunc nuw i8 %67 to i1
  tail call fastcc void @dissect_osd_attributes_list(ptr noundef %1, ptr noundef %0, i32 noundef %65, ptr noundef %2, ptr noundef %9, i1 noundef zeroext %68)
  br label %dissect_osd_attribute_data_in.exit

dissect_osd_attribute_data_in.exit:               ; preds = %63, %60, %57, %54, %51, %49
  ret void
}